target datalayout = "e-m:e-p270:32:32-p271:32:32-p272:64:64-i64:64-i128:128-f80:128-n8:16:32:64-S128"
target triple = "x86_64-unknown-linux-gnu"

%"class.grpc_core::PartySyncUsingAtomics" = type { %"struct.std::atomic" }
%"struct.std::atomic" = type { %"struct.std::__atomic_base" }
%"struct.std::__atomic_base" = type { i64 }
%"class.grpc_core::Wakeable" = type { ptr }
%"class.grpc_core::Party" = type { %"class.grpc_core::Activity", %"class.grpc_core::Wakeable", %"class.grpc_core::PartySyncUsingAtomics", ptr, i8, [16 x %"struct.std::atomic.2"] }
%"class.grpc_core::Activity" = type { %"class.grpc_core::Orphanable" }
%"class.grpc_core::Orphanable" = type { ptr }
%"struct.std::atomic.2" = type { %"struct.std::__atomic_base.3" }
%"struct.std::__atomic_base.3" = type { ptr }
%"class.grpc_core::Waker" = type { %"struct.grpc_core::Waker::WakeableAndArg" }
%"struct.grpc_core::Waker::WakeableAndArg" = type { ptr, i16 }

; Function Attrs: mustprogress nounwind uwtable
define linkonce_odr void @_ZN9grpc_core21PartySyncUsingAtomics17IncrementRefCountEv(ptr noundef nonnull align 8 dereferenceable(8) %this) #4 comdat align 2 {
entry:
  %this.addr.i = alloca ptr, align 8
  %__i.addr.i = alloca i64, align 8
  %__m.addr.i = alloca i32, align 4
  %.atomictmp.i = alloca i64, align 8
  %atomic-temp.i = alloca i64, align 8
  %this.addr = alloca ptr, align 8
  store ptr %this, ptr %this.addr, align 8
  %this1 = load ptr, ptr %this.addr, align 8
  %state_ = getelementptr inbounds %"class.grpc_core::PartySyncUsingAtomics", ptr %this1, i32 0, i32 0
  store ptr %state_, ptr %this.addr.i, align 8
  store i64 1099511627776, ptr %__i.addr.i, align 8
  store i32 0, ptr %__m.addr.i, align 4
  %this1.i = load ptr, ptr %this.addr.i, align 8
  %0 = load i32, ptr %__m.addr.i, align 4
  %1 = load i64, ptr %__i.addr.i, align 8
  store i64 %1, ptr %.atomictmp.i, align 8
  switch i32 %0, label %monotonic.i [
    i32 1, label %acquire.i
    i32 2, label %acquire.i
    i32 3, label %release.i
    i32 4, label %acqrel.i
    i32 5, label %seqcst.i
  ]

monotonic.i:                                      ; preds = %entry
  %2 = load i64, ptr %.atomictmp.i, align 8
  %3 = atomicrmw add ptr %this1.i, i64 %2 monotonic, align 8
  store i64 %3, ptr %atomic-temp.i, align 8
  br label %_ZNSt13__atomic_baseImE9fetch_addEmSt12memory_order.exit

acquire.i:                                        ; preds = %entry, %entry
  %4 = load i64, ptr %.atomictmp.i, align 8
  %5 = atomicrmw add ptr %this1.i, i64 %4 acquire, align 8
  store i64 %5, ptr %atomic-temp.i, align 8
  br label %_ZNSt13__atomic_baseImE9fetch_addEmSt12memory_order.exit

release.i:                                        ; preds = %entry
  %6 = load i64, ptr %.atomictmp.i, align 8
  %7 = atomicrmw add ptr %this1.i, i64 %6 release, align 8
  store i64 %7, ptr %atomic-temp.i, align 8
  br label %_ZNSt13__atomic_baseImE9fetch_addEmSt12memory_order.exit

acqrel.i:                                         ; preds = %entry
  %8 = load i64, ptr %.atomictmp.i, align 8
  %9 = atomicrmw add ptr %this1.i, i64 %8 acq_rel, align 8
  store i64 %9, ptr %atomic-temp.i, align 8
  br label %_ZNSt13__atomic_baseImE9fetch_addEmSt12memory_order.exit

seqcst.i:                                         ; preds = %entry
  %10 = load i64, ptr %.atomictmp.i, align 8
  %11 = atomicrmw add ptr %this1.i, i64 %10 seq_cst, align 8
  store i64 %11, ptr %atomic-temp.i, align 8
  br label %_ZNSt13__atomic_baseImE9fetch_addEmSt12memory_order.exit

_ZNSt13__atomic_baseImE9fetch_addEmSt12memory_order.exit: ; preds = %seqcst.i, %acqrel.i, %release.i, %acquire.i, %monotonic.i
  ret void
}

; Function Attrs: mustprogress nounwind uwtable
define linkonce_odr void @_ZN9grpc_core5WakerC2EPNS_8WakeableEt(ptr noundef nonnull align 8 dereferenceable(16) %this, ptr noundef %wakeable, i16 noundef zeroext %wakeup_mask) unnamed_addr #4 comdat align 2 {
entry:
  %this.addr = alloca ptr, align 8
  %wakeable.addr = alloca ptr, align 8
  %wakeup_mask.addr = alloca i16, align 2
  store ptr %this, ptr %this.addr, align 8
  store ptr %wakeable, ptr %wakeable.addr, align 8
  store i16 %wakeup_mask, ptr %wakeup_mask.addr, align 2
  %this1 = load ptr, ptr %this.addr, align 8
  %wakeable_and_arg_ = getelementptr inbounds %"class.grpc_core::Waker", ptr %this1, i32 0, i32 0
  %wakeable2 = getelementptr inbounds %"struct.grpc_core::Waker::WakeableAndArg", ptr %wakeable_and_arg_, i32 0, i32 0
  %0 = load ptr, ptr %wakeable.addr, align 8
  store ptr %0, ptr %wakeable2, align 8
  %wakeup_mask3 = getelementptr inbounds %"struct.grpc_core::Waker::WakeableAndArg", ptr %wakeable_and_arg_, i32 0, i32 1
  %1 = load i16, ptr %wakeup_mask.addr, align 2
  store i16 %1, ptr %wakeup_mask3, align 8
  ret void
}

; Function Attrs: mustprogress uwtable
define linkonce_odr void @_ZN9grpc_core5Party17IncrementRefCountEv(ptr noundef nonnull align 8 dereferenceable(168) %this) #5 comdat align 2 {
entry:
  %this.addr = alloca ptr, align 8
  store ptr %this, ptr %this.addr, align 8
  %this1 = load ptr, ptr %this.addr, align 8
  %sync_ = getelementptr inbounds %"class.grpc_core::Party", ptr %this1, i32 0, i32 2
  call void @_ZN9grpc_core21PartySyncUsingAtomics17IncrementRefCountEv(ptr noundef nonnull align 8 dereferenceable(8) %sync_)
  ret void
}

; Function Attrs: mustprogress uwtable
define void @_ZN9grpc_core5Party15MakeOwningWakerEv(ptr noalias sret(%"class.grpc_core::Waker") align 8 %agg.result, ptr noundef nonnull align 8 dereferenceable(168) %this) unnamed_addr #5 align 2 {
entry:
  %result.ptr = alloca ptr, align 8
  %this.addr = alloca ptr, align 8
  store ptr %agg.result, ptr %result.ptr, align 8
  store ptr %this, ptr %this.addr, align 8
  %this1 = load ptr, ptr %this.addr, align 8
  call void @_ZN9grpc_core5Party17IncrementRefCountEv(ptr noundef nonnull align 8 dereferenceable(168) %this1)
  %add.ptr = getelementptr inbounds i8, ptr %this1, i64 8
  %currently_polling_ = getelementptr inbounds %"class.grpc_core::Party", ptr %this1, i32 0, i32 4
  %0 = load i8, ptr %currently_polling_, align 8
  %conv = zext i8 %0 to i32
  %shl = shl i32 1, %conv
  %conv2 = trunc i32 %shl to i16
  call void @_ZN9grpc_core5WakerC2EPNS_8WakeableEt(ptr noundef nonnull align 8 dereferenceable(16) %agg.result, ptr noundef %add.ptr, i16 noundef zeroext %conv2)
  ret void
}