; Function Attrs: mustprogress nofree norecurse nounwind willreturn memory(argmem: readwrite) uwtable
define void @_ZN9grpc_core5Party15MakeOwningWakerEv(ptr noalias nocapture writeonly sret(%"class.grpc_core::Waker") align 8 %agg.result, ptr noundef nonnull align 8 dereferenceable(168) %this) unnamed_addr #4 align 2 {
entry:
  %sync_.i = getelementptr inbounds i8, ptr %this, i64 16
  %0 = atomicrmw add ptr %sync_.i, i64 1099511627776 monotonic, align 8
  %add.ptr = getelementptr inbounds i8, ptr %this, i64 8
  %currently_polling_ = getelementptr inbounds i8, ptr %this, i64 32
  %1 = load i8, ptr %currently_polling_, align 8
  %conv = zext nneg i8 %1 to i32
  %shl = shl nuw i32 1, %conv
  %conv2 = trunc i32 %shl to i16
  store ptr %add.ptr, ptr %agg.result, align 8
  %wakeup_mask3.i = getelementptr inbounds i8, ptr %agg.result, i64 8
  store i16 %conv2, ptr %wakeup_mask3.i, align 8
  ret void
}